	.file	"gamma.orig.bc"
	.file	1 "gamma.cpp"
	.file	2 "acceptrt.default.c"
	.text
.Ltext_begin:
	.data
	.section	.rodata.cst8,"aM",@progbits,8
	.align	8
.LCPI0_0:
	.quad	-4616189618054758400    # double -1.000000e+00
                                        #  (0xbff0000000000000)
.LCPI0_1:
	.quad	4607182418800017408     # double 1.000000e+00
                                        #  (0x3ff0000000000000)
.LCPI0_2:
	.quad	4617878467915022336     # double 5.500000e+00
                                        #  (0x4016000000000000)
.LCPI0_3:
	.quad	4612826843881852453     # double 2.506628e+00
                                        #  (0x40040d931ff6ce25)
.LCPI0_4:
	.quad	4602678819172646912     # double 5.000000e-01
                                        #  (0x3fe0000000000000)
	.text
	.globl	_Z5Gammad
	.align	16, 0x90
	.type	_Z5Gammad,@function
_Z5Gammad:                              # @_Z5Gammad
	.cfi_startproc
.Lfunc_begin0:
	.file	3 "/home/joshua/Desktop/ACCEPT/accept/apps/jean-pierre/gamma/gamma.cpp"
	.loc	3 51 0                  # gamma.cpp:51:0
# BB#0:                                 # %for.body
	subq	$120, %rsp
.Ltmp1:
	.cfi_def_cfa_offset 128
	#DEBUG_VALUE: Gamma:xx <- XMM0+0
.Ltmp2:
	#DEBUG_VALUE: stp <- 2.506628e+00+0
	movabsq	$4635061114323249235, %rax # imm = 0x40530B869F76A853
	.loc	3 54 0 prologue_end     # gamma.cpp:54:0
.Ltmp3:
	movq	%rax, 72(%rsp)
	movabsq	$-4587584349161597273, %rax # imm = 0xC055A0572B14D6A7
	.loc	3 55 0                  # gamma.cpp:55:0
	movq	%rax, 80(%rsp)
	movabsq	$4627452585419330802, %rax # imm = 0x4038039BF0E1D4F2
	.loc	3 56 0                  # gamma.cpp:56:0
	movq	%rax, 88(%rsp)
	movabsq	$-4615145956056853781, %rax # imm = 0xBFF3B5347EA692EB
	.loc	3 57 0                  # gamma.cpp:57:0
	movq	%rax, 96(%rsp)
	movabsq	$4563216414525443505, %rax # imm = 0x3F53CD26ED054DB1
	.loc	3 58 0                  # gamma.cpp:58:0
	movq	%rax, 104(%rsp)
	movabsq	$-4695425530027761359, %rax # imm = 0xBED67F5B9D652131
	.loc	3 59 0                  # gamma.cpp:59:0
	movq	%rax, 112(%rsp)
	.loc	3 62 0                  # gamma.cpp:62:0
	addsd	.LCPI0_0(%rip), %xmm0
.Ltmp4:
	#DEBUG_VALUE: x <- XMM0+0
	movsd	%xmm0, 48(%rsp)         # 8-byte Spill
	movsd	.LCPI0_1(%rip), %xmm1
	.loc	3 67 0                  # gamma.cpp:67:0
.Ltmp5:
	movaps	%xmm0, %xmm2
	addsd	%xmm1, %xmm2
.Ltmp6:
	#DEBUG_VALUE: x <- XMM2+0
	movsd	%xmm2, 24(%rsp)         # 8-byte Spill
.Ltmp7:
	#DEBUG_VALUE: x <- [%rsp+$24]+$0
	addsd	%xmm1, %xmm2
	movsd	%xmm2, 16(%rsp)         # 8-byte Spill
	addsd	%xmm1, %xmm2
	movsd	%xmm2, 32(%rsp)         # 8-byte Spill
	addsd	%xmm1, %xmm2
	movsd	%xmm2, 8(%rsp)          # 8-byte Spill
	movsd	.LCPI0_2(%rip), %xmm1
.Ltmp8:
	.loc	3 63 0                  # gamma.cpp:63:0
	addsd	%xmm0, %xmm1
.Ltmp9:
	#DEBUG_VALUE: tmp <- XMM1+0
	movsd	%xmm1, 56(%rsp)         # 8-byte Spill
	.loc	3 64 0                  # gamma.cpp:64:0
	movaps	%xmm1, %xmm0
.Ltmp10:
	#DEBUG_VALUE: tmp <- [%rsp+$56]+$0
	callq	log
	movsd	%xmm0, 40(%rsp)         # 8-byte Spill
	.loc	3 68 0                  # gamma.cpp:68:0
.Ltmp11:
	movsd	72(%rsp), %xmm0
	movsd	80(%rsp), %xmm1
	divsd	16(%rsp), %xmm1         # 8-byte Folded Reload
	movsd	8(%rsp), %xmm5          # 8-byte Reload
	.loc	3 67 0                  # gamma.cpp:67:0
	movaps	%xmm5, %xmm4
	movsd	.LCPI0_1(%rip), %xmm2
	addsd	%xmm2, %xmm4
	.loc	3 68 0                  # gamma.cpp:68:0
	divsd	24(%rsp), %xmm0         # 8-byte Folded Reload
	.loc	3 67 0                  # gamma.cpp:67:0
	movaps	%xmm4, %xmm3
	addsd	%xmm2, %xmm3
	movaps	%xmm2, %xmm6
	.loc	3 68 0                  # gamma.cpp:68:0
	movsd	112(%rsp), %xmm2
	divsd	%xmm3, %xmm2
	movsd	104(%rsp), %xmm3
	divsd	%xmm4, %xmm3
	movsd	96(%rsp), %xmm4
	divsd	%xmm5, %xmm4
	movsd	88(%rsp), %xmm5
	divsd	32(%rsp), %xmm5         # 8-byte Folded Reload
	addsd	%xmm6, %xmm0
	addsd	%xmm1, %xmm0
	addsd	%xmm5, %xmm0
	addsd	%xmm4, %xmm0
	addsd	%xmm3, %xmm0
	addsd	%xmm2, %xmm0
.Ltmp12:
	#DEBUG_VALUE: ser <- XMM0+0
	.loc	3 70 0                  # gamma.cpp:70:0
	mulsd	.LCPI0_3(%rip), %xmm0
.Ltmp13:
	callq	log
	movsd	48(%rsp), %xmm1         # 8-byte Reload
	.loc	3 64 0                  # gamma.cpp:64:0
	addsd	.LCPI0_4(%rip), %xmm1
.Ltmp14:
	#DEBUG_VALUE: j <- 1+0
	#DEBUG_VALUE: ser <- 1.000000e+00+0
	mulsd	40(%rsp), %xmm1         # 8-byte Folded Reload
	subsd	56(%rsp), %xmm1         # 8-byte Folded Reload
.Ltmp15:
	#DEBUG_VALUE: tmp <- XMM1+0
	.loc	3 70 0                  # gamma.cpp:70:0
	addsd	%xmm0, %xmm1
.Ltmp16:
	movaps	%xmm1, %xmm0
	callq	exp
	addq	$120, %rsp
	ret
.Ltmp17:
.Ltmp18:
	.size	_Z5Gammad, .Ltmp18-_Z5Gammad
.Lfunc_end0:
	.cfi_endproc

	.section	.rodata.cst8,"aM",@progbits,8
	.align	8
.LCPI1_0:
	.quad	4512825593480736141     # double 5.000000e-07
                                        #  (0x3ea0c6f7a0b5ed8d)
	.text
	.globl	main
	.align	16, 0x90
	.type	main,@function
main:                                   # @main
	.cfi_startproc
.Lfunc_begin1:
	.loc	3 73 0                  # gamma.cpp:73:0
# BB#0:                                 # %entry
	.loc	3 80 0 prologue_end     # gamma.cpp:80:0
	pushq	%rbx
.Ltmp21:
	.cfi_def_cfa_offset 16
	subq	$16000000, %rsp         # imm = 0xF42400
.Ltmp22:
	.cfi_def_cfa_offset 16000016
.Ltmp23:
	.cfi_offset %rbx, -16
	callq	accept_roi_begin
	.loc	3 81 0                  # gamma.cpp:81:0
	movq	$0, x(%rip)
	.loc	3 82 0                  # gamma.cpp:82:0
.Ltmp24:
	movl	$0, i(%rip)
	.align	16, 0x90
.LBB1_1:                                # %for.body
                                        # =>This Inner Loop Header: Depth=1
	movsd	x(%rip), %xmm0
	.loc	3 83 0                  # gamma.cpp:83:0
.Ltmp25:
	addsd	.LCPI1_0(%rip), %xmm0
	movsd	%xmm0, x(%rip)
	.loc	3 84 0                  # gamma.cpp:84:0
	callq	_Z5Gammad
	movsd	%xmm0, y(%rip)
	.loc	3 85 0                  # gamma.cpp:85:0
	movslq	i(%rip), %rax
	movsd	x(%rip), %xmm0
	movsd	%xmm0, 8000000(%rsp,%rax,8)
	.loc	3 86 0                  # gamma.cpp:86:0
	movslq	i(%rip), %rax
	movsd	y(%rip), %xmm0
	movsd	%xmm0, (%rsp,%rax,8)
.Ltmp26:
	.loc	3 82 0                  # gamma.cpp:82:0
	movl	i(%rip), %eax
	incl	%eax
	movl	%eax, i(%rip)
	cmpl	$1000000, %eax          # imm = 0xF4240
	jl	.LBB1_1
.Ltmp27:
# BB#2:                                 # %for.end
	.loc	3 88 0                  # gamma.cpp:88:0
	callq	accept_roi_end
	.loc	3 90 0                  # gamma.cpp:90:0
	movl	$.L.str, %edi
	movl	$.L.str1, %esi
	callq	fopen
	movq	%rax, %rbx
.Ltmp28:
	#DEBUG_VALUE: file <- RBX+0
	testq	%rbx, %rbx
	.loc	3 91 0                  # gamma.cpp:91:0
	je	.LBB1_13
# BB#3:                                 # %for.cond6.preheader
	#DEBUG_VALUE: file <- RBX+0
	.loc	3 95 0                  # gamma.cpp:95:0
.Ltmp29:
	movl	$0, i(%rip)
	xorl	%eax, %eax
	.align	16, 0x90
.LBB1_4:                                # %for.body8
                                        # =>This Inner Loop Header: Depth=1
	#DEBUG_VALUE: file <- RBX+0
	.loc	3 96 0                  # gamma.cpp:96:0
.Ltmp30:
	movslq	%eax, %rax
	movsd	8000000(%rsp,%rax,8), %xmm0
	movq	%rbx, %rdi
	movl	$.L.str3, %esi
	movb	$1, %al
	callq	fprintf
.Ltmp31:
	#DEBUG_VALUE: retval <- EAX+0
	testl	%eax, %eax
	js	.LBB1_5
.Ltmp32:
# BB#6:                                 # %if.end14
                                        #   in Loop: Header=BB1_4 Depth=1
	#DEBUG_VALUE: file <- RBX+0
	.loc	3 101 0                 # gamma.cpp:101:0
	movslq	i(%rip), %rax
	movsd	(%rsp,%rax,8), %xmm0
	movq	%rbx, %rdi
	.loc	3 96 0                  # gamma.cpp:96:0
	movl	$.L.str3, %esi
	movb	$1, %al
	.loc	3 101 0                 # gamma.cpp:101:0
	callq	fprintf
.Ltmp33:
	#DEBUG_VALUE: retval <- EAX+0
	testl	%eax, %eax
	js	.LBB1_7
.Ltmp34:
# BB#8:                                 # %for.inc21
                                        #   in Loop: Header=BB1_4 Depth=1
	#DEBUG_VALUE: file <- RBX+0
	.loc	3 95 0                  # gamma.cpp:95:0
	movl	i(%rip), %eax
	incl	%eax
	movl	%eax, i(%rip)
	cmpl	$1000000, %eax          # imm = 0xF4240
	jl	.LBB1_4
.Ltmp35:
# BB#9:                                 # %for.end23
	#DEBUG_VALUE: file <- RBX+0
	.loc	3 107 0                 # gamma.cpp:107:0
	movq	%rbx, %rdi
	callq	fclose
	movl	%eax, %ecx
.Ltmp36:
	#DEBUG_VALUE: retval <- ECX+0
	xorl	%eax, %eax
	testl	%ecx, %ecx
	je	.LBB1_12
.Ltmp37:
# BB#10:                                # %if.then26
	.loc	3 109 0                 # gamma.cpp:109:0
	movl	$.L.str6, %edi
	jmp	.LBB1_11
.Ltmp38:
.LBB1_13:                               # %if.then
	.loc	3 92 0                  # gamma.cpp:92:0
	movl	$.L.str2, %edi
	jmp	.LBB1_11
.Ltmp39:
.LBB1_5:                                # %if.then13
	.loc	3 98 0                  # gamma.cpp:98:0
	movl	$.L.str4, %edi
	jmp	.LBB1_11
.Ltmp40:
.LBB1_7:                                # %if.then19
	.loc	3 103 0                 # gamma.cpp:103:0
	movl	$.L.str5, %edi
.Ltmp41:
.LBB1_11:                               # %if.then26
	.loc	3 109 0                 # gamma.cpp:109:0
	callq	perror
	movl	$1, %eax
.Ltmp42:
.LBB1_12:                               # %return
	.loc	3 114 0                 # gamma.cpp:114:0
	addq	$16000000, %rsp         # imm = 0xF42400
	popq	%rbx
	ret
.Ltmp43:
.Ltmp44:
	.size	main, .Ltmp44-main
.Lfunc_end1:
	.cfi_endproc

	.section	.rodata.cst8,"aM",@progbits,8
	.align	8
.LCPI2_0:
	.quad	4517329193108106637     # double 1.000000e-06
                                        #  (0x3eb0c6f7a0b5ed8d)
	.text
	.globl	accept_roi_begin
	.align	16, 0x90
	.type	accept_roi_begin,@function
accept_roi_begin:                       # @accept_roi_begin
	.cfi_startproc
.Lfunc_begin2:
	.loc	2 8 0                   # acceptrt.default.c:8:0
# BB#0:                                 # %entry
	subq	$24, %rsp
.Ltmp46:
	.cfi_def_cfa_offset 32
	leaq	8(%rsp), %rdi
	xorl	%esi, %esi
	.loc	2 10 0 prologue_end     # acceptrt.default.c:10:0
.Ltmp47:
	callq	gettimeofday
	.loc	2 11 0                  # acceptrt.default.c:11:0
	cvtsi2sdq	16(%rsp), %xmm0
	mulsd	.LCPI2_0(%rip), %xmm0
	cvtsi2sdq	8(%rsp), %xmm1
	addsd	%xmm0, %xmm1
	movsd	%xmm1, time_begin(%rip)
	.loc	2 12 0                  # acceptrt.default.c:12:0
	addq	$24, %rsp
	ret
.Ltmp48:
.Ltmp49:
	.size	accept_roi_begin, .Ltmp49-accept_roi_begin
.Lfunc_end2:
	.cfi_endproc

	.section	.rodata.cst8,"aM",@progbits,8
	.align	8
.LCPI3_0:
	.quad	4517329193108106637     # double 1.000000e-06
                                        #  (0x3eb0c6f7a0b5ed8d)
	.text
	.globl	accept_roi_end
	.align	16, 0x90
	.type	accept_roi_end,@function
accept_roi_end:                         # @accept_roi_end
	.cfi_startproc
.Lfunc_begin3:
	.loc	2 14 0                  # acceptrt.default.c:14:0
# BB#0:                                 # %entry
	pushq	%rbx
.Ltmp52:
	.cfi_def_cfa_offset 16
	subq	$32, %rsp
.Ltmp53:
	.cfi_def_cfa_offset 48
.Ltmp54:
	.cfi_offset %rbx, -16
	leaq	16(%rsp), %rdi
	xorl	%esi, %esi
	.loc	2 16 0 prologue_end     # acceptrt.default.c:16:0
.Ltmp55:
	callq	gettimeofday
	.loc	2 17 0                  # acceptrt.default.c:17:0
	cvtsi2sdq	24(%rsp), %xmm0
	mulsd	.LCPI3_0(%rip), %xmm0
	cvtsi2sdq	16(%rsp), %xmm1
	addsd	%xmm0, %xmm1
	movsd	%xmm1, (%rsp)           # 8-byte Spill
	.loc	2 18 0                  # acceptrt.default.c:18:0
	movsd	time_begin(%rip), %xmm0
	movsd	%xmm0, 8(%rsp)          # 8-byte Spill
	.loc	2 20 0                  # acceptrt.default.c:20:0
	movl	$.L.str7, %edi
	movl	$.L.str18, %esi
	callq	fopen
	movq	%rax, %rbx
	movsd	(%rsp), %xmm0           # 8-byte Reload
	.loc	2 18 0                  # acceptrt.default.c:18:0
	subsd	8(%rsp), %xmm0          # 8-byte Folded Reload
	.loc	2 21 0                  # acceptrt.default.c:21:0
	movq	%rbx, %rdi
	movl	$.L.str29, %esi
	movb	$1, %al
	callq	fprintf
	.loc	2 22 0                  # acceptrt.default.c:22:0
	movq	%rbx, %rdi
	callq	fclose
	.loc	2 23 0                  # acceptrt.default.c:23:0
	addq	$32, %rsp
	popq	%rbx
	ret
.Ltmp56:
.Ltmp57:
	.size	accept_roi_end, .Ltmp57-accept_roi_end
.Lfunc_end3:
	.cfi_endproc

	.type	x,@object               # @x
	.bss
	.globl	x
	.align	8
x:
	.quad	0                       # double 0.000000e+00
                                        #  (0x0)
	.size	x, 8

	.type	y,@object               # @y
	.globl	y
	.align	8
y:
	.quad	0                       # double 0.000000e+00
                                        #  (0x0)
	.size	y, 8

	.type	i,@object               # @i
	.globl	i
	.align	4
i:
	.long	0                       # 0x0
	.size	i, 4

	.type	.L.str,@object          # @.str
	.section	.rodata.str1.1,"aMS",@progbits,1
.L.str:
	.asciz	 "my_output.txt"
	.size	.L.str, 14

	.type	.L.str1,@object         # @.str1
.L.str1:
	.asciz	 "w"
	.size	.L.str1, 2

	.type	.L.str2,@object         # @.str2
.L.str2:
	.asciz	 "fopen for write failed\n"
	.size	.L.str2, 24

	.type	.L.str3,@object         # @.str3
.L.str3:
	.asciz	 "%.10f\n"
	.size	.L.str3, 7

	.type	.L.str4,@object         # @.str4
.L.str4:
	.asciz	 "fprintf of x-value failed\n"
	.size	.L.str4, 27

	.type	.L.str5,@object         # @.str5
.L.str5:
	.asciz	 "fprintf of y-value failed\n"
	.size	.L.str5, 27

	.type	.L.str6,@object         # @.str6
.L.str6:
	.asciz	 "fclose failed\n"
	.size	.L.str6, 15

	.type	time_begin,@object      # @time_begin
	.local	time_begin
	.comm	time_begin,8,8
	.type	.L.str7,@object         # @.str7
.L.str7:
	.asciz	 "accept_time.txt"
	.size	.L.str7, 16

	.type	.L.str18,@object        # @.str18
.L.str18:
	.asciz	 "w"
	.size	.L.str18, 2

	.type	.L.str29,@object        # @.str29
.L.str29:
	.asciz	 "%f\n"
	.size	.L.str29, 4

	.text
.Ltext_end:
	.data
.Ldata_end:
	.text
.Lsection_end1:
	.section	".note.GNU-stack","",@progbits
